target datalayout = "e-m:e-p270:32:32-p271:32:32-p272:64:64-i64:64-i128:128-f80:128-n8:16:32:64-S128"
target triple = "x86_64-pc-linux-gnu"

%struct.PHP_GOST_CTX = type { [16 x i32], [2 x i32], i8, [32 x i8], ptr }
%struct._php_hashcontext_object = type { ptr, ptr, i64, ptr, %struct._zend_object }
%struct._zend_object = type { %struct._zend_refcounted_h, i32, ptr, ptr, ptr, [1 x %struct._zval_struct] }
%struct._zend_refcounted_h = type { i32, %union.anon }
%union.anon = type { i32 }
%struct._zval_struct = type { %union._zend_value, %union.anon.0, %union.anon.3 }
%union._zend_value = type { i64 }
%union.anon.0 = type { i32 }
%union.anon.3 = type { i32 }

@.str.1 = private unnamed_addr constant [10 x i8] c"l16l2bb32\00", align 1

; Function Attrs: nounwind uwtable
define internal i32 @php_gost_unserialize(ptr noundef %0, i64 noundef %1, ptr noundef %2) #0 {
  %4 = alloca i32, align 4
  %5 = alloca ptr, align 8
  %6 = alloca i64, align 8
  %7 = alloca ptr, align 8
  %8 = alloca ptr, align 8
  %9 = alloca i32, align 4
  store ptr %0, ptr %5, align 8
  store i64 %1, ptr %6, align 8
  store ptr %2, ptr %7, align 8
  %10 = load ptr, ptr %5, align 8
  %11 = getelementptr inbounds %struct._php_hashcontext_object, ptr %10, i32 0, i32 1
  %12 = load ptr, ptr %11, align 8
  store ptr %12, ptr %8, align 8
  store i32 -1, ptr %9, align 4
  %13 = load i64, ptr %6, align 8
  %14 = icmp eq i64 %13, 2
  br i1 %14, label %15, label %27

15:                                               ; preds = %3
  %16 = load ptr, ptr %5, align 8
  %17 = load ptr, ptr %7, align 8
  %18 = call i32 @php_hash_unserialize_spec(ptr noundef %16, ptr noundef %17, ptr noundef @.str.1)
  store i32 %18, ptr %9, align 4
  %19 = icmp eq i32 %18, 0
  br i1 %19, label %20, label %27

20:                                               ; preds = %15
  %21 = load ptr, ptr %8, align 8
  %22 = getelementptr inbounds %struct.PHP_GOST_CTX, ptr %21, i32 0, i32 2
  %23 = load i8, ptr %22, align 8
  %24 = zext i8 %23 to i64
  %25 = icmp ult i64 %24, 32
  br i1 %25, label %26, label %27

26:                                               ; preds = %20
  store i32 0, ptr %4, align 4
  br label %35

27:                                               ; preds = %20, %15, %3
  %28 = load i32, ptr %9, align 4
  %29 = icmp ne i32 %28, 0
  br i1 %29, label %30, label %32

30:                                               ; preds = %27
  %31 = load i32, ptr %9, align 4
  br label %33

32:                                               ; preds = %27
  br label %33

33:                                               ; preds = %32, %30
  %34 = phi i32 [ %31, %30 ], [ -2000, %32 ]
  store i32 %34, ptr %4, align 4
  br label %35

35:                                               ; preds = %33, %26
  %36 = load i32, ptr %4, align 4
  ret i32 %36
}